target datalayout = "e-m:e-p270:32:32-p271:32:32-p272:64:64-i64:64-i128:128-f80:128-n8:16:32:64-S128"
target triple = "x86_64-pc-linux-gnu"

%struct.quic_tserver_args_st = type { ptr, ptr, ptr, ptr, ptr, ptr, ptr, ptr, i64 }
%struct.quic_tserver_st = type { %struct.quic_tserver_args_st, ptr, ptr, ptr, ptr, ptr, ptr, ptr, i8 }
%struct.OSSL_TIME = type { i64 }
%struct.quic_stream_st = type { %struct.quic_stream_list_node_st, %struct.quic_stream_list_node_st, %struct.quic_stream_list_node_st, ptr, i64, i64, i64, i64, i64, i64, i64, ptr, ptr, %struct.quic_txfc_st, %struct.quic_rxfc_st, i64 }
%struct.quic_stream_list_node_st = type { ptr, ptr }
%struct.quic_txfc_st = type { ptr, i64, i64, i8 }
%struct.quic_rxfc_st = type { i64, i64, i64, i64, i64, i64, i64, %struct.OSSL_TIME, ptr, ptr, ptr, i8, i8, i8, i8 }

; Function Attrs: nounwind uwtable
define i32 @ossl_quic_tserver_is_stream_totally_acked(ptr noundef %0, i64 noundef %1) #0 {
  %3 = alloca i32, align 4
  %4 = alloca ptr, align 8
  %5 = alloca i64, align 8
  %6 = alloca ptr, align 8
  %7 = alloca i32, align 4
  store ptr %0, ptr %4, align 8, !tbaa !10
  store i64 %1, ptr %5, align 8, !tbaa !26
  call void @llvm.lifetime.start.p0(i64 8, ptr %6) #6
  %8 = load ptr, ptr %4, align 8, !tbaa !10
  %9 = getelementptr inbounds nuw %struct.quic_tserver_st, ptr %8, i32 0, i32 4
  %10 = load ptr, ptr %9, align 8, !tbaa !52
  %11 = call ptr @ossl_quic_channel_get_qsm(ptr noundef %10)
  %12 = load i64, ptr %5, align 8, !tbaa !26
  %13 = call ptr @ossl_quic_stream_map_get_by_id(ptr noundef %11, i64 noundef %12)
  store ptr %13, ptr %6, align 8, !tbaa !80
  %14 = load ptr, ptr %6, align 8, !tbaa !80
  %15 = icmp eq ptr %14, null
  br i1 %15, label %16, label %17

16:                                               ; preds = %2
  store i32 1, ptr %3, align 4
  store i32 1, ptr %7, align 4
  br label %22

17:                                               ; preds = %2
  %18 = load ptr, ptr %6, align 8, !tbaa !80
  %19 = getelementptr inbounds nuw %struct.quic_stream_st, ptr %18, i32 0, i32 11
  %20 = load ptr, ptr %19, align 8, !tbaa !93
  %21 = call i32 @ossl_quic_sstream_is_totally_acked(ptr noundef %20)
  store i32 %21, ptr %3, align 4
  store i32 1, ptr %7, align 4
  br label %22

22:                                               ; preds = %17, %16
  call void @llvm.lifetime.end.p0(i64 8, ptr %6) #6
  %23 = load i32, ptr %3, align 4
  ret i32 %23
}