; Function Attrs: nounwind uwtable
define i32 @ossl_quic_tserver_is_stream_totally_acked(ptr noundef readonly captures(none) %0, i64 noundef %1) local_unnamed_addr #0 {
  %3 = getelementptr inbounds nuw i8, ptr %0, i64 96
  %4 = load ptr, ptr %3, align 8, !tbaa !46
  %5 = tail call ptr @ossl_quic_channel_get_qsm(ptr noundef %4) #6
  %6 = tail call ptr @ossl_quic_stream_map_get_by_id(ptr noundef %5, i64 noundef %1) #6
  %7 = icmp eq ptr %6, null
  br i1 %7, label %12, label %8

8:                                                ; preds = %2
  %9 = getelementptr inbounds nuw i8, ptr %6, i64 112
  %10 = load ptr, ptr %9, align 8, !tbaa !81
  %11 = tail call i32 @ossl_quic_sstream_is_totally_acked(ptr noundef %10) #6
  br label %12

12:                                               ; preds = %2, %8
  %.0 = phi i32 [ %11, %8 ], [ 1, %2 ]
  ret i32 %.0
}